target datalayout = "e-m:e-p270:32:32-p271:32:32-p272:64:64-i64:64-i128:128-f80:128-n8:16:32:64-S128"
target triple = "x86_64-pc-linux-gnu"

%struct.t_trxframe = type { i32, i8, i32, i8, i64, i8, float, i8, i8, float, i32, i8, ptr, i8, float, i8, ptr, i8, ptr, i8, ptr, i8, [3 x [3 x float]], i8, i32, i8, ptr }
%"class.gmx::BasicVector" = type { [3 x float] }

; Function Attrs: mustprogress nounwind uwtable
define linkonce_odr noundef float @_ZNK3gmx11BasicVectorIfEixEi(ptr noundef nonnull align 4 dereferenceable(12) %0, i32 noundef %1) #7 comdat align 2 {
  %3 = alloca ptr, align 8
  %4 = alloca i32, align 4
  store ptr %0, ptr %3, align 8, !tbaa !830
  store i32 %1, ptr %4, align 4, !tbaa !111
  %5 = load ptr, ptr %3, align 8
  %6 = getelementptr inbounds nuw %"class.gmx::BasicVector", ptr %5, i32 0, i32 0
  %7 = load i32, ptr %4, align 4, !tbaa !111
  %8 = sext i32 %7 to i64
  %9 = getelementptr inbounds [3 x float], ptr %6, i64 0, i64 %8
  %10 = load float, ptr %9, align 4, !tbaa !99
  ret float %10
}

; Function Attrs: mustprogress uwtable
define linkonce_odr noundef float @_ZNK3gmx11BasicVectorIfE3dotERKS1_(ptr noundef nonnull align 4 dereferenceable(12) %0, ptr noundef nonnull align 4 dereferenceable(12) %1) #4 comdat align 2 {
  %3 = alloca ptr, align 8
  %4 = alloca ptr, align 8
  store ptr %0, ptr %3, align 8, !tbaa !830
  store ptr %1, ptr %4, align 8, !tbaa !830
  %5 = load ptr, ptr %3, align 8
  %6 = getelementptr inbounds nuw %"class.gmx::BasicVector", ptr %5, i32 0, i32 0
  %7 = getelementptr inbounds [3 x float], ptr %6, i64 0, i64 0
  %8 = load float, ptr %7, align 4, !tbaa !99
  %9 = load ptr, ptr %4, align 8, !tbaa !830
  %10 = call noundef float @_ZNK3gmx11BasicVectorIfEixEi(ptr noundef nonnull align 4 dereferenceable(12) %9, i32 noundef 0)
  %11 = getelementptr inbounds nuw %"class.gmx::BasicVector", ptr %5, i32 0, i32 0
  %12 = getelementptr inbounds [3 x float], ptr %11, i64 0, i64 1
  %13 = load float, ptr %12, align 4, !tbaa !99
  %14 = load ptr, ptr %4, align 8, !tbaa !830
  %15 = call noundef float @_ZNK3gmx11BasicVectorIfEixEi(ptr noundef nonnull align 4 dereferenceable(12) %14, i32 noundef 1)
  %16 = fmul float %13, %15
  %17 = call float @llvm.fmuladd.f32(float %8, float %10, float %16)
  %18 = getelementptr inbounds nuw %"class.gmx::BasicVector", ptr %5, i32 0, i32 0
  %19 = getelementptr inbounds [3 x float], ptr %18, i64 0, i64 2
  %20 = load float, ptr %19, align 4, !tbaa !99
  %21 = load ptr, ptr %4, align 8, !tbaa !830
  %22 = call noundef float @_ZNK3gmx11BasicVectorIfEixEi(ptr noundef nonnull align 4 dereferenceable(12) %21, i32 noundef 2)
  %23 = call float @llvm.fmuladd.f32(float %20, float %22, float %17)
  ret float %23
}

; Function Attrs: inlinehint mustprogress nounwind uwtable
define linkonce_odr noundef float @_ZSt4sqrtf(float noundef %0) #9 comdat {
  %2 = alloca float, align 4
  store float %0, ptr %2, align 4, !tbaa !99
  %3 = load float, ptr %2, align 4, !tbaa !99
  %4 = call float @sqrtf(float noundef %3) #3, !tbaa !111
  ret float %4
}

; Function Attrs: mustprogress uwtable
define linkonce_odr noundef float @_ZNK3gmx11BasicVectorIfE5norm2Ev(ptr noundef nonnull align 4 dereferenceable(12) %0) #4 comdat align 2 {
  %2 = alloca ptr, align 8
  store ptr %0, ptr %2, align 8, !tbaa !830
  %3 = load ptr, ptr %2, align 8
  %4 = call noundef float @_ZNK3gmx11BasicVectorIfE3dotERKS1_(ptr noundef nonnull align 4 dereferenceable(12) %3, ptr noundef nonnull align 4 dereferenceable(12) %3)
  ret float %4
}

; Function Attrs: mustprogress uwtable
define linkonce_odr noundef float @_ZNK3gmx11BasicVectorIfE4normEv(ptr noundef nonnull align 4 dereferenceable(12) %0) #4 comdat align 2 {
  %2 = alloca ptr, align 8
  store ptr %0, ptr %2, align 8, !tbaa !830
  %3 = load ptr, ptr %2, align 8
  %4 = call noundef float @_ZNK3gmx11BasicVectorIfE5norm2Ev(ptr noundef nonnull align 4 dereferenceable(12) %3)
  %5 = call noundef float @_ZSt4sqrtf(float noundef %4)
  ret float %5
}

; Function Attrs: mustprogress nounwind uwtable
define linkonce_odr noundef nonnull align 4 dereferenceable(12) ptr @_ZN3gmx11BasicVectorIfE6as_vecEv(ptr noundef nonnull align 4 dereferenceable(12) %0) #7 comdat align 2 {
  %2 = alloca ptr, align 8
  store ptr %0, ptr %2, align 8, !tbaa !830
  %3 = load ptr, ptr %2, align 8
  %4 = getelementptr inbounds nuw %"class.gmx::BasicVector", ptr %3, i32 0, i32 0
  ret ptr %4
}

; Function Attrs: mustprogress nounwind uwtable
define linkonce_odr void @_ZN3gmx11BasicVectorIfEC2Efff(ptr noundef nonnull align 4 dereferenceable(12) %0, float noundef %1, float noundef %2, float noundef %3) unnamed_addr #7 comdat align 2 {
  %5 = alloca ptr, align 8
  %6 = alloca float, align 4
  %7 = alloca float, align 4
  %8 = alloca float, align 4
  store ptr %0, ptr %5, align 8, !tbaa !830
  store float %1, ptr %6, align 4, !tbaa !99
  store float %2, ptr %7, align 4, !tbaa !99
  store float %3, ptr %8, align 4, !tbaa !99
  %9 = load ptr, ptr %5, align 8
  %10 = getelementptr inbounds nuw %"class.gmx::BasicVector", ptr %9, i32 0, i32 0
  %11 = load float, ptr %6, align 4, !tbaa !99
  store float %11, ptr %10, align 4, !tbaa !99
  %12 = getelementptr inbounds float, ptr %10, i64 1
  %13 = load float, ptr %7, align 4, !tbaa !99
  store float %13, ptr %12, align 4, !tbaa !99
  %14 = getelementptr inbounds float, ptr %10, i64 2
  %15 = load float, ptr %8, align 4, !tbaa !99
  store float %15, ptr %14, align 4, !tbaa !99
  ret void
}

; Function Attrs: mustprogress uwtable
define internal noundef float @_ZN3gmx15analysismodules12_GLOBAL__N_119SecondaryStructures24calculateAtomicDistancesEmmRK10t_trxframePK5t_pbc(i64 noundef %0, i64 noundef %1, ptr noundef nonnull align 8 dereferenceable(176) %2, ptr noundef %3) #4 align 2 {
  %5 = alloca i64, align 8
  %6 = alloca i64, align 8
  %7 = alloca ptr, align 8
  %8 = alloca ptr, align 8
  %9 = alloca %"class.gmx::BasicVector", align 4
  store i64 %0, ptr %5, align 8, !tbaa !123
  store i64 %1, ptr %6, align 8, !tbaa !123
  store ptr %2, ptr %7, align 8, !tbaa !109
  store ptr %3, ptr %8, align 8, !tbaa !113
  call void @llvm.lifetime.start.p0(i64 12, ptr %9) #3
  call void @_ZN3gmx11BasicVectorIfEC2Efff(ptr noundef nonnull align 4 dereferenceable(12) %9, float noundef 0.000000e+00, float noundef 0.000000e+00, float noundef 0.000000e+00)
  %10 = load ptr, ptr %8, align 8, !tbaa !113
  %11 = load ptr, ptr %7, align 8, !tbaa !109
  %12 = getelementptr inbounds nuw %struct.t_trxframe, ptr %11, i32 0, i32 16
  %13 = load ptr, ptr %12, align 8, !tbaa !735
  %14 = load i64, ptr %5, align 8, !tbaa !123
  %15 = getelementptr inbounds nuw [3 x float], ptr %13, i64 %14
  %16 = getelementptr inbounds [3 x float], ptr %15, i64 0, i64 0
  %17 = load ptr, ptr %7, align 8, !tbaa !109
  %18 = getelementptr inbounds nuw %struct.t_trxframe, ptr %17, i32 0, i32 16
  %19 = load ptr, ptr %18, align 8, !tbaa !735
  %20 = load i64, ptr %6, align 8, !tbaa !123
  %21 = getelementptr inbounds nuw [3 x float], ptr %19, i64 %20
  %22 = getelementptr inbounds [3 x float], ptr %21, i64 0, i64 0
  %23 = call noundef nonnull align 4 dereferenceable(12) ptr @_ZN3gmx11BasicVectorIfE6as_vecEv(ptr noundef nonnull align 4 dereferenceable(12) %9)
  %24 = getelementptr inbounds [3 x float], ptr %23, i64 0, i64 0
  call void @_Z6pbc_dxPK5t_pbcPKfS3_Pf(ptr noundef %10, ptr noundef %16, ptr noundef %22, ptr noundef %24)
  %25 = call noundef float @_ZNK3gmx11BasicVectorIfE4normEv(ptr noundef nonnull align 4 dereferenceable(12) %9)
  %26 = fpext float %25 to double
  %27 = fmul double %26, 1.000000e+01
  %28 = fptrunc double %27 to float
  call void @llvm.lifetime.end.p0(i64 12, ptr %9) #3
  ret float %28
}