; Function Attrs: mustprogress uwtable
define internal fastcc noundef float @_ZN3gmx15analysismodules12_GLOBAL__N_119SecondaryStructures24calculateAtomicDistancesEmmRK10t_trxframePK5t_pbc(i64 noundef %0, i64 noundef %1, ptr %.72.val, ptr noundef %2) unnamed_addr #3 align 2 {
  %4 = alloca %"class.gmx::BasicVector", align 4
  call void @llvm.lifetime.start.p0(i64 12, ptr nonnull %4) #31
  store float 0.000000e+00, ptr %4, align 4, !tbaa !149
  %5 = getelementptr inbounds nuw i8, ptr %4, i64 4
  store float 0.000000e+00, ptr %5, align 4, !tbaa !149
  %6 = getelementptr inbounds nuw i8, ptr %4, i64 8
  store float 0.000000e+00, ptr %6, align 4, !tbaa !149
  %7 = getelementptr inbounds nuw [3 x float], ptr %.72.val, i64 %0
  %8 = getelementptr inbounds nuw [3 x float], ptr %.72.val, i64 %1
  call void @_Z6pbc_dxPK5t_pbcPKfS3_Pf(ptr noundef %2, ptr noundef %7, ptr noundef %8, ptr noundef nonnull %4)
  %9 = load float, ptr %4, align 4, !tbaa !149
  %10 = load float, ptr %5, align 4, !tbaa !149
  %11 = fmul float %10, %10
  %12 = call float @llvm.fmuladd.f32(float %9, float %9, float %11)
  %13 = load float, ptr %6, align 4, !tbaa !149
  %14 = call noundef float @llvm.fmuladd.f32(float %13, float %13, float %12)
  %sqrt.i = call noundef float @llvm.sqrt.f32(float %14)
  %15 = fmul float %sqrt.i, 1.000000e+01
  call void @llvm.lifetime.end.p0(i64 12, ptr nonnull %4) #31
  ret float %15
}